target datalayout = "e-m:e-p270:32:32-p271:32:32-p272:64:64-i64:64-i128:128-f80:128-n8:16:32:64-S128"
target triple = "x86_64-pc-linux-gnu"

%struct.PJconsts = type { ptr, ptr, ptr, ptr, ptr, ptr, ptr, ptr, ptr, ptr, ptr, ptr, i32, ptr, ptr, ptr, ptr, ptr, ptr, ptr, ptr, double, double, double, double, double, double, double, double, double, double, double, double, double, double, double, double, double, double, double, double, double, double, i32, i32, i32, i32, i32, i32, i32, i32, i32, i32, i32, ptr, ptr, ptr, ptr, ptr, ptr, double, double, double, double, double, double, double, double, double, double, double, i32, [7 x double], i32, ptr, ptr, double, double, i32, [4 x i8], %"class.std::shared_ptr", i8, double, i8, %"class.std::__cxx11::basic_string", %"class.std::__cxx11::basic_string", %"class.std::__cxx11::basic_string", i8, %"class.std::vector", i32, %"class.std::vector.3", i32, i8, i8, i8, ptr }
%"class.std::shared_ptr" = type { %"class.std::__shared_ptr" }
%"class.std::__shared_ptr" = type { ptr, %"class.std::__shared_count" }
%"class.std::__shared_count" = type { ptr }
%"class.std::__cxx11::basic_string" = type { %"struct.std::__cxx11::basic_string<char>::_Alloc_hider", i64, %union.anon }
%"struct.std::__cxx11::basic_string<char>::_Alloc_hider" = type { ptr }
%union.anon = type { i64, [8 x i8] }
%"class.std::vector" = type { %"struct.std::_Vector_base" }
%"struct.std::_Vector_base" = type { %"struct.std::_Vector_base<osgeo::proj::operation::GridDescription, std::allocator<osgeo::proj::operation::GridDescription>>::_Vector_impl" }
%"struct.std::_Vector_base<osgeo::proj::operation::GridDescription, std::allocator<osgeo::proj::operation::GridDescription>>::_Vector_impl" = type { %"struct.std::_Vector_base<osgeo::proj::operation::GridDescription, std::allocator<osgeo::proj::operation::GridDescription>>::_Vector_impl_data" }
%"struct.std::_Vector_base<osgeo::proj::operation::GridDescription, std::allocator<osgeo::proj::operation::GridDescription>>::_Vector_impl_data" = type { ptr, ptr, ptr }
%"class.std::vector.3" = type { %"struct.std::_Vector_base.4" }
%"struct.std::_Vector_base.4" = type { %"struct.std::_Vector_base<PJCoordOperation, std::allocator<PJCoordOperation>>::_Vector_impl" }
%"struct.std::_Vector_base<PJCoordOperation, std::allocator<PJCoordOperation>>::_Vector_impl" = type { %"struct.std::_Vector_base<PJCoordOperation, std::allocator<PJCoordOperation>>::_Vector_impl_data" }
%"struct.std::_Vector_base<PJCoordOperation, std::allocator<PJCoordOperation>>::_Vector_impl_data" = type { ptr, ptr, ptr }
%"struct.(anonymous namespace)::pj_ob_tran_data" = type { ptr, double, double, double }
%struct.PJ_XY = type { double, double }
%struct.PJ_LP = type { double, double }

; Function Attrs: mustprogress uwtable
define internal { double, double } @_ZL9t_inverse5PJ_XYP8PJconsts(double %0, double %1, ptr noundef %2) #0 {
  %4 = alloca %struct.PJ_LP, align 8
  %5 = alloca %struct.PJ_XY, align 8
  %6 = alloca ptr, align 8
  %7 = alloca ptr, align 8
  %8 = alloca double, align 8
  %9 = alloca double, align 8
  %10 = alloca %struct.PJ_XY, align 8
  %11 = getelementptr inbounds nuw { double, double }, ptr %5, i32 0, i32 0
  store double %0, ptr %11, align 8
  %12 = getelementptr inbounds nuw { double, double }, ptr %5, i32 0, i32 1
  store double %1, ptr %12, align 8
  store ptr %2, ptr %6, align 8, !tbaa !3
  call void @llvm.lifetime.start.p0(i64 8, ptr %7) #10
  %13 = load ptr, ptr %6, align 8, !tbaa !3
  %14 = getelementptr inbounds nuw %struct.PJconsts, ptr %13, i32 0, i32 11
  %15 = load ptr, ptr %14, align 8, !tbaa !43
  store ptr %15, ptr %7, align 8, !tbaa !41
  call void @llvm.lifetime.start.p0(i64 8, ptr %8) #10
  call void @llvm.lifetime.start.p0(i64 8, ptr %9) #10
  %16 = load ptr, ptr %7, align 8, !tbaa !41
  %17 = getelementptr inbounds nuw %"struct.(anonymous namespace)::pj_ob_tran_data", ptr %16, i32 0, i32 0
  %18 = load ptr, ptr %17, align 8, !tbaa !60
  %19 = getelementptr inbounds nuw %struct.PJconsts, ptr %18, i32 0, i32 14
  %20 = load ptr, ptr %19, align 8, !tbaa !67
  call void @llvm.memcpy.p0.p0.i64(ptr align 8 %10, ptr align 8 %5, i64 16, i1 false), !tbaa.struct !75
  %21 = load ptr, ptr %7, align 8, !tbaa !41
  %22 = getelementptr inbounds nuw %"struct.(anonymous namespace)::pj_ob_tran_data", ptr %21, i32 0, i32 0
  %23 = load ptr, ptr %22, align 8, !tbaa !60
  %24 = getelementptr inbounds nuw { double, double }, ptr %10, i32 0, i32 0
  %25 = load double, ptr %24, align 8
  %26 = getelementptr inbounds nuw { double, double }, ptr %10, i32 0, i32 1
  %27 = load double, ptr %26, align 8
  %28 = call { double, double } %20(double %25, double %27, ptr noundef %23)
  %29 = getelementptr inbounds nuw { double, double }, ptr %4, i32 0, i32 0
  %30 = extractvalue { double, double } %28, 0
  store double %30, ptr %29, align 8
  %31 = getelementptr inbounds nuw { double, double }, ptr %4, i32 0, i32 1
  %32 = extractvalue { double, double } %28, 1
  store double %32, ptr %31, align 8
  %33 = getelementptr inbounds nuw %struct.PJ_LP, ptr %4, i32 0, i32 0
  %34 = load double, ptr %33, align 8, !tbaa !72
  %35 = fcmp une double %34, 0x7FF0000000000000
  br i1 %35, label %36, label %65

36:                                               ; preds = %3
  %37 = getelementptr inbounds nuw %struct.PJ_LP, ptr %4, i32 0, i32 1
  %38 = load double, ptr %37, align 8, !tbaa !74
  %39 = call double @cos(double noundef %38) #10, !tbaa !49
  store double %39, ptr %8, align 8, !tbaa !62
  %40 = getelementptr inbounds nuw %struct.PJ_LP, ptr %4, i32 0, i32 0
  %41 = load double, ptr %40, align 8, !tbaa !72
  %42 = load ptr, ptr %7, align 8, !tbaa !41
  %43 = getelementptr inbounds nuw %"struct.(anonymous namespace)::pj_ob_tran_data", ptr %42, i32 0, i32 1
  %44 = load double, ptr %43, align 8, !tbaa !63
  %45 = fsub double %41, %44
  store double %45, ptr %9, align 8, !tbaa !62
  %46 = load double, ptr %8, align 8, !tbaa !62
  %47 = load double, ptr %9, align 8, !tbaa !62
  %48 = call double @sin(double noundef %47) #10, !tbaa !49
  %49 = fmul double %46, %48
  %50 = getelementptr inbounds nuw %struct.PJ_LP, ptr %4, i32 0, i32 1
  %51 = load double, ptr %50, align 8, !tbaa !74
  %52 = call double @sin(double noundef %51) #10, !tbaa !49
  %53 = fneg double %52
  %54 = call noundef double @_Z6aatan2dd(double noundef %49, double noundef %53)
  %55 = getelementptr inbounds nuw %struct.PJ_LP, ptr %4, i32 0, i32 0
  store double %54, ptr %55, align 8, !tbaa !72
  %56 = load ptr, ptr %6, align 8, !tbaa !3
  %57 = getelementptr inbounds nuw %struct.PJconsts, ptr %56, i32 0, i32 0
  %58 = load ptr, ptr %57, align 8, !tbaa !45
  %59 = load double, ptr %8, align 8, !tbaa !62
  %60 = load double, ptr %9, align 8, !tbaa !62
  %61 = call double @cos(double noundef %60) #10, !tbaa !49
  %62 = fmul double %59, %61
  %63 = call noundef double @_Z5aasinP6pj_ctxd(ptr noundef %58, double noundef %62)
  %64 = getelementptr inbounds nuw %struct.PJ_LP, ptr %4, i32 0, i32 1
  store double %63, ptr %64, align 8, !tbaa !74
  br label %65

65:                                               ; preds = %36, %3
  call void @llvm.lifetime.end.p0(i64 8, ptr %9) #10
  call void @llvm.lifetime.end.p0(i64 8, ptr %8) #10
  call void @llvm.lifetime.end.p0(i64 8, ptr %7) #10
  %66 = load { double, double }, ptr %4, align 8
  ret { double, double } %66
}