; Function Attrs: mustprogress uwtable
define internal { double, double } @_ZL9t_inverse5PJ_XYP8PJconsts(double %0, double %1, ptr noundef readonly captures(none) %2) #0 {
  %4 = getelementptr inbounds nuw i8, ptr %2, i64 88
  %5 = load ptr, ptr %4, align 8, !tbaa !40
  %6 = load ptr, ptr %5, align 8, !tbaa !41
  %7 = getelementptr inbounds nuw i8, ptr %6, i64 112
  %8 = load ptr, ptr %7, align 8, !tbaa !60
  %9 = tail call { double, double } %8(double %0, double %1, ptr noundef %6)
  %10 = extractvalue { double, double } %9, 0
  %11 = fcmp une double %10, 0x7FF0000000000000
  br i1 %11, label %12, label %29

12:                                               ; preds = %3
  %13 = extractvalue { double, double } %9, 1
  %14 = tail call double @cos(double noundef %13) #9, !tbaa !55
  %15 = getelementptr inbounds nuw i8, ptr %5, i64 8
  %16 = load double, ptr %15, align 8, !tbaa !56
  %17 = fsub double %10, %16
  %18 = tail call double @sin(double noundef %17) #9, !tbaa !55
  %19 = fmul double %14, %18
  %20 = tail call double @sin(double noundef %13) #9, !tbaa !55
  %21 = fneg double %20
  %22 = tail call noundef double @_Z6aatan2dd(double noundef %19, double noundef %21)
  %23 = load ptr, ptr %2, align 8, !tbaa !44
  %24 = tail call double @cos(double noundef %17) #9, !tbaa !55
  %25 = fmul double %14, %24
  %26 = tail call noundef double @_Z5aasinP6pj_ctxd(ptr noundef %23, double noundef %25)
  %27 = insertvalue { double, double } poison, double %22, 0
  %28 = insertvalue { double, double } %27, double %26, 1
  br label %29

29:                                               ; preds = %12, %3
  %.fca.1.insert.merged = phi { double, double } [ %28, %12 ], [ %9, %3 ]
  ret { double, double } %.fca.1.insert.merged
}